target datalayout = "e-m:e-p270:32:32-p271:32:32-p272:64:64-i64:64-i128:128-f80:128-n8:16:32:64-S128"
target triple = "x86_64-pc-linux-gnu"

%struct.job_record = type { i32, ptr, ptr, ptr, ptr, i16, i32, i32, i32, ptr, i32, ptr, ptr, i16, ptr, double, i64, ptr, ptr, ptr, ptr, ptr, ptr, i32, ptr, i32, i64, i64, i32, i32, ptr, i16, i64, i64, i8, i32, ptr, ptr, ptr, ptr, ptr, ptr, ptr, ptr, i32, ptr, ptr, i32, ptr, i32, ptr, i32, ptr, i32, ptr, ptr, ptr, ptr, ptr, ptr, i32, i16, i64, ptr, ptr, ptr, ptr, %struct.acct_policy_limit_set_t, i16, ptr, ptr, ptr, ptr, ptr, i32, ptr, ptr, ptr, ptr, ptr, i32, i32, ptr, ptr, ptr, i16, ptr, ptr, i8, ptr, ptr, i64, i64, i8, i32, i32, i8, i32, ptr, i32, i64, i32, ptr, ptr, ptr, i8, i16, i64, i32, ptr, ptr, ptr, ptr, ptr, i16, i32, ptr, ptr, ptr, ptr, i32, ptr, i32, i16, i64, ptr, i32, i32, ptr, i64, ptr, ptr, i64, i32, i32, i64, i32, i32, ptr, ptr, ptr, ptr, ptr, ptr, ptr, ptr, ptr, ptr, ptr, ptr, i32, ptr, i16, i16, i16, i16, ptr, i32, i32, i8, i64 }
%struct.acct_policy_limit_set_t = type { i16, i16, ptr }
%struct.slurmdb_qos_rec_t = type { i64, ptr, i32, i32, i32, i32, i32, i32, ptr, ptr, ptr, ptr, ptr, ptr, i32, double, i32, i32, i32, i32, i32, i32, ptr, ptr, ptr, ptr, ptr, ptr, ptr, ptr, ptr, ptr, ptr, ptr, ptr, ptr, i32, i32, ptr, ptr, ptr, ptr, ptr, i16, i32, i32, ptr, ptr, double, double }
%struct.slurmdb_assoc_rec = type { ptr, ptr, ptr, ptr, ptr, ptr, ptr, i32, i32, i32, i32, i32, ptr, ptr, ptr, ptr, ptr, ptr, i32, i32, i16, ptr, ptr, i32, i32, i32, ptr, ptr, ptr, ptr, ptr, ptr, ptr, ptr, i32, i32, ptr, i32, ptr, i32, ptr, i32, i32, ptr, ptr, ptr }
%struct.slurmdb_qos_usage_t = type { i32, ptr, ptr, ptr, ptr, i32, i32, ptr, ptr, double, double, i32, x86_fp80, ptr, ptr }
%struct.slurmdb_used_limits_t = type { i32, ptr, i32, i32, ptr, ptr, ptr, ptr, i32 }

@slurmctld_tres_cnt = external global i32, align 4
@.str.50 = private unnamed_addr constant [59 x i8] c"altering %pJ QOS %s got %lu just removed %lu and added %lu\00", align 1

; Function Attrs: nounwind uwtable
define internal void @_qos_alter_job(ptr noundef %0, ptr noundef %1, ptr noundef %2, ptr noundef %3) #0 {
  %5 = alloca ptr, align 8
  %6 = alloca ptr, align 8
  %7 = alloca ptr, align 8
  %8 = alloca ptr, align 8
  %9 = alloca i32, align 4
  %10 = alloca ptr, align 8
  %11 = alloca ptr, align 8
  %12 = alloca i32, align 4
  %13 = alloca i64, align 8
  store ptr %0, ptr %5, align 8
  store ptr %1, ptr %6, align 8
  store ptr %2, ptr %7, align 8
  store ptr %3, ptr %8, align 8
  call void @llvm.lifetime.start.p0(i64 4, ptr %9) #8
  call void @llvm.lifetime.start.p0(i64 8, ptr %10) #8
  store ptr null, ptr %10, align 8
  call void @llvm.lifetime.start.p0(i64 8, ptr %11) #8
  store ptr null, ptr %11, align 8
  %14 = load ptr, ptr %6, align 8
  %15 = icmp ne ptr %14, null
  br i1 %15, label %16, label %19

16:                                               ; preds = %4
  %17 = load ptr, ptr %5, align 8
  %18 = icmp ne ptr %17, null
  br i1 %18, label %20, label %19

19:                                               ; preds = %16, %4
  store i32 1, ptr %12, align 4
  br label %201

20:                                               ; preds = %16
  %21 = load ptr, ptr %6, align 8
  %22 = getelementptr inbounds nuw %struct.slurmdb_qos_rec_t, ptr %21, i32 0, i32 47
  %23 = load ptr, ptr %22, align 8
  %24 = getelementptr inbounds nuw %struct.slurmdb_qos_usage_t, ptr %23, i32 0, i32 1
  %25 = load ptr, ptr %5, align 8
  %26 = getelementptr inbounds nuw %struct.job_record, ptr %25, i32 0, i32 11
  %27 = load ptr, ptr %26, align 8
  %28 = getelementptr inbounds nuw %struct.slurmdb_assoc_rec, ptr %27, i32 0, i32 1
  %29 = load ptr, ptr %28, align 8
  %30 = call ptr @acct_policy_get_acct_used_limits(ptr noundef %24, ptr noundef %29)
  store ptr %30, ptr %10, align 8
  %31 = load ptr, ptr %6, align 8
  %32 = getelementptr inbounds nuw %struct.slurmdb_qos_rec_t, ptr %31, i32 0, i32 47
  %33 = load ptr, ptr %32, align 8
  %34 = getelementptr inbounds nuw %struct.slurmdb_qos_usage_t, ptr %33, i32 0, i32 14
  %35 = load ptr, ptr %5, align 8
  %36 = getelementptr inbounds nuw %struct.job_record, ptr %35, i32 0, i32 150
  %37 = load i32, ptr %36, align 8
  %38 = call ptr @acct_policy_get_user_used_limits(ptr noundef %34, i32 noundef %37)
  store ptr %38, ptr %11, align 8
  store i32 0, ptr %9, align 4
  br label %39

39:                                               ; preds = %197, %20
  %40 = load i32, ptr %9, align 4
  %41 = load i32, ptr @slurmctld_tres_cnt, align 4
  %42 = icmp slt i32 %40, %41
  br i1 %42, label %43, label %200

43:                                               ; preds = %39
  %44 = load ptr, ptr %7, align 8
  %45 = load i32, ptr %9, align 4
  %46 = sext i32 %45 to i64
  %47 = getelementptr inbounds i64, ptr %44, i64 %46
  %48 = load i64, ptr %47, align 8
  %49 = load ptr, ptr %8, align 8
  %50 = load i32, ptr %9, align 4
  %51 = sext i32 %50 to i64
  %52 = getelementptr inbounds i64, ptr %49, i64 %51
  %53 = load i64, ptr %52, align 8
  %54 = icmp eq i64 %48, %53
  br i1 %54, label %55, label %56

55:                                               ; preds = %43
  br label %197

56:                                               ; preds = %43
  call void @llvm.lifetime.start.p0(i64 8, ptr %13) #8
  %57 = load ptr, ptr %7, align 8
  %58 = load i32, ptr %9, align 4
  %59 = sext i32 %58 to i64
  %60 = getelementptr inbounds i64, ptr %57, i64 %59
  %61 = load i64, ptr %60, align 8
  %62 = load ptr, ptr %8, align 8
  %63 = load i32, ptr %9, align 4
  %64 = sext i32 %63 to i64
  %65 = getelementptr inbounds i64, ptr %62, i64 %64
  %66 = load i64, ptr %65, align 8
  %67 = sub i64 %61, %66
  store i64 %67, ptr %13, align 8
  %68 = load i64, ptr %13, align 8
  %69 = icmp slt i64 %68, 0
  br i1 %69, label %82, label %70

70:                                               ; preds = %56
  %71 = load i64, ptr %13, align 8
  %72 = load ptr, ptr %6, align 8
  %73 = getelementptr inbounds nuw %struct.slurmdb_qos_rec_t, ptr %72, i32 0, i32 47
  %74 = load ptr, ptr %73, align 8
  %75 = getelementptr inbounds nuw %struct.slurmdb_qos_usage_t, ptr %74, i32 0, i32 8
  %76 = load ptr, ptr %75, align 8
  %77 = load i32, ptr %9, align 4
  %78 = sext i32 %77 to i64
  %79 = getelementptr inbounds i64, ptr %76, i64 %78
  %80 = load i64, ptr %79, align 8
  %81 = icmp ult i64 %71, %80
  br i1 %81, label %82, label %94

82:                                               ; preds = %70, %56
  %83 = load i64, ptr %13, align 8
  %84 = load ptr, ptr %6, align 8
  %85 = getelementptr inbounds nuw %struct.slurmdb_qos_rec_t, ptr %84, i32 0, i32 47
  %86 = load ptr, ptr %85, align 8
  %87 = getelementptr inbounds nuw %struct.slurmdb_qos_usage_t, ptr %86, i32 0, i32 8
  %88 = load ptr, ptr %87, align 8
  %89 = load i32, ptr %9, align 4
  %90 = sext i32 %89 to i64
  %91 = getelementptr inbounds i64, ptr %88, i64 %90
  %92 = load i64, ptr %91, align 8
  %93 = sub i64 %92, %83
  store i64 %93, ptr %91, align 8
  br label %103

94:                                               ; preds = %70
  %95 = load ptr, ptr %6, align 8
  %96 = getelementptr inbounds nuw %struct.slurmdb_qos_rec_t, ptr %95, i32 0, i32 47
  %97 = load ptr, ptr %96, align 8
  %98 = getelementptr inbounds nuw %struct.slurmdb_qos_usage_t, ptr %97, i32 0, i32 8
  %99 = load ptr, ptr %98, align 8
  %100 = load i32, ptr %9, align 4
  %101 = sext i32 %100 to i64
  %102 = getelementptr inbounds i64, ptr %99, i64 %101
  store i64 0, ptr %102, align 8
  br label %103

103:                                              ; preds = %94, %82
  %104 = load i64, ptr %13, align 8
  %105 = icmp slt i64 %104, 0
  br i1 %105, label %116, label %106

106:                                              ; preds = %103
  %107 = load i64, ptr %13, align 8
  %108 = load ptr, ptr %10, align 8
  %109 = getelementptr inbounds nuw %struct.slurmdb_used_limits_t, ptr %108, i32 0, i32 5
  %110 = load ptr, ptr %109, align 8
  %111 = load i32, ptr %9, align 4
  %112 = sext i32 %111 to i64
  %113 = getelementptr inbounds i64, ptr %110, i64 %112
  %114 = load i64, ptr %113, align 8
  %115 = icmp ult i64 %107, %114
  br i1 %115, label %116, label %126

116:                                              ; preds = %106, %103
  %117 = load i64, ptr %13, align 8
  %118 = load ptr, ptr %10, align 8
  %119 = getelementptr inbounds nuw %struct.slurmdb_used_limits_t, ptr %118, i32 0, i32 5
  %120 = load ptr, ptr %119, align 8
  %121 = load i32, ptr %9, align 4
  %122 = sext i32 %121 to i64
  %123 = getelementptr inbounds i64, ptr %120, i64 %122
  %124 = load i64, ptr %123, align 8
  %125 = sub i64 %124, %117
  store i64 %125, ptr %123, align 8
  br label %133

126:                                              ; preds = %106
  %127 = load ptr, ptr %10, align 8
  %128 = getelementptr inbounds nuw %struct.slurmdb_used_limits_t, ptr %127, i32 0, i32 5
  %129 = load ptr, ptr %128, align 8
  %130 = load i32, ptr %9, align 4
  %131 = sext i32 %130 to i64
  %132 = getelementptr inbounds i64, ptr %129, i64 %131
  store i64 0, ptr %132, align 8
  br label %133

133:                                              ; preds = %126, %116
  %134 = load i64, ptr %13, align 8
  %135 = icmp slt i64 %134, 0
  br i1 %135, label %146, label %136

136:                                              ; preds = %133
  %137 = load i64, ptr %13, align 8
  %138 = load ptr, ptr %11, align 8
  %139 = getelementptr inbounds nuw %struct.slurmdb_used_limits_t, ptr %138, i32 0, i32 5
  %140 = load ptr, ptr %139, align 8
  %141 = load i32, ptr %9, align 4
  %142 = sext i32 %141 to i64
  %143 = getelementptr inbounds i64, ptr %140, i64 %142
  %144 = load i64, ptr %143, align 8
  %145 = icmp ult i64 %137, %144
  br i1 %145, label %146, label %156

146:                                              ; preds = %136, %133
  %147 = load i64, ptr %13, align 8
  %148 = load ptr, ptr %11, align 8
  %149 = getelementptr inbounds nuw %struct.slurmdb_used_limits_t, ptr %148, i32 0, i32 5
  %150 = load ptr, ptr %149, align 8
  %151 = load i32, ptr %9, align 4
  %152 = sext i32 %151 to i64
  %153 = getelementptr inbounds i64, ptr %150, i64 %152
  %154 = load i64, ptr %153, align 8
  %155 = sub i64 %154, %147
  store i64 %155, ptr %153, align 8
  br label %163

156:                                              ; preds = %136
  %157 = load ptr, ptr %11, align 8
  %158 = getelementptr inbounds nuw %struct.slurmdb_used_limits_t, ptr %157, i32 0, i32 5
  %159 = load ptr, ptr %158, align 8
  %160 = load i32, ptr %9, align 4
  %161 = sext i32 %160 to i64
  %162 = getelementptr inbounds i64, ptr %159, i64 %161
  store i64 0, ptr %162, align 8
  br label %163

163:                                              ; preds = %156, %146
  br label %164

164:                                              ; preds = %163
  br label %165

165:                                              ; preds = %164
  %166 = call i32 @get_log_level()
  %167 = icmp sge i32 %166, 6
  br i1 %167, label %168, label %192

168:                                              ; preds = %165
  %169 = load ptr, ptr %5, align 8
  %170 = load ptr, ptr %6, align 8
  %171 = getelementptr inbounds nuw %struct.slurmdb_qos_rec_t, ptr %170, i32 0, i32 40
  %172 = load ptr, ptr %171, align 8
  %173 = load ptr, ptr %6, align 8
  %174 = getelementptr inbounds nuw %struct.slurmdb_qos_rec_t, ptr %173, i32 0, i32 47
  %175 = load ptr, ptr %174, align 8
  %176 = getelementptr inbounds nuw %struct.slurmdb_qos_usage_t, ptr %175, i32 0, i32 8
  %177 = load ptr, ptr %176, align 8
  %178 = load i32, ptr %9, align 4
  %179 = sext i32 %178 to i64
  %180 = getelementptr inbounds i64, ptr %177, i64 %179
  %181 = load i64, ptr %180, align 8
  %182 = load ptr, ptr %7, align 8
  %183 = load i32, ptr %9, align 4
  %184 = sext i32 %183 to i64
  %185 = getelementptr inbounds i64, ptr %182, i64 %184
  %186 = load i64, ptr %185, align 8
  %187 = load ptr, ptr %8, align 8
  %188 = load i32, ptr %9, align 4
  %189 = sext i32 %188 to i64
  %190 = getelementptr inbounds i64, ptr %187, i64 %189
  %191 = load i64, ptr %190, align 8
  call void (i32, ptr, ...) @log_var(i32 noundef 6, ptr noundef @.str.50, ptr noundef %169, ptr noundef %172, i64 noundef %181, i64 noundef %186, i64 noundef %191)
  br label %192

192:                                              ; preds = %168, %165
  br label %193

193:                                              ; preds = %192
  br label %194

194:                                              ; preds = %193
  br label %195

195:                                              ; preds = %194
  br label %196

196:                                              ; preds = %195
  call void @llvm.lifetime.end.p0(i64 8, ptr %13) #8
  br label %197

197:                                              ; preds = %196, %55
  %198 = load i32, ptr %9, align 4
  %199 = add nsw i32 %198, 1
  store i32 %199, ptr %9, align 4
  br label %39, !llvm.loop !21

200:                                              ; preds = %39
  store i32 0, ptr %12, align 4
  br label %201

201:                                              ; preds = %200, %19
  call void @llvm.lifetime.end.p0(i64 8, ptr %11) #8
  call void @llvm.lifetime.end.p0(i64 8, ptr %10) #8
  call void @llvm.lifetime.end.p0(i64 4, ptr %9) #8
  %202 = load i32, ptr %12, align 4
  switch i32 %202, label %204 [
    i32 0, label %203
    i32 1, label %203
  ]

203:                                              ; preds = %201, %201
  ret void

204:                                              ; preds = %201
  unreachable
}