; Function Attrs: nounwind uwtable
define internal fastcc void @_qos_alter_job(ptr noundef %0, ptr noundef readonly captures(address_is_null) %1, ptr noundef nonnull readonly captures(none) %2, ptr noundef nonnull readonly captures(none) %3) unnamed_addr #0 {
  %5 = icmp ne ptr %1, null
  %6 = icmp ne ptr %0, null
  %or.cond = and i1 %6, %5
  br i1 %or.cond, label %7, label %.loopexit

7:                                                ; preds = %4
  %8 = getelementptr inbounds nuw i8, ptr %1, i64 312
  %9 = load ptr, ptr %8, align 8
  %10 = getelementptr inbounds nuw i8, ptr %9, i64 8
  %11 = getelementptr inbounds nuw i8, ptr %0, i64 72
  %12 = load ptr, ptr %11, align 8
  %13 = getelementptr inbounds nuw i8, ptr %12, i64 8
  %14 = load ptr, ptr %13, align 8
  %15 = tail call ptr @acct_policy_get_acct_used_limits(ptr noundef nonnull %10, ptr noundef %14)
  %16 = load ptr, ptr %8, align 8
  %17 = getelementptr inbounds nuw i8, ptr %16, i64 120
  %18 = getelementptr inbounds nuw i8, ptr %0, i64 1096
  %19 = load i32, ptr %18, align 8
  %20 = tail call ptr @acct_policy_get_user_used_limits(ptr noundef nonnull %17, i32 noundef %19)
  %21 = load i32, ptr @slurmctld_tres_cnt, align 4
  %22 = icmp sgt i32 %21, 0
  br i1 %22, label %.lr.ph, label %.loopexit

.lr.ph:                                           ; preds = %7
  %23 = getelementptr inbounds nuw i8, ptr %15, i64 32
  %24 = getelementptr inbounds nuw i8, ptr %20, i64 32
  %25 = getelementptr inbounds nuw i8, ptr %1, i64 264
  br label %26

26:                                               ; preds = %.lr.ph, %70
  %indvars.iv = phi i64 [ 0, %.lr.ph ], [ %indvars.iv.next, %70 ]
  %27 = getelementptr inbounds nuw i64, ptr %2, i64 %indvars.iv
  %28 = load i64, ptr %27, align 8
  %29 = getelementptr inbounds nuw i64, ptr %3, i64 %indvars.iv
  %30 = load i64, ptr %29, align 8
  %31 = icmp eq i64 %28, %30
  br i1 %31, label %70, label %32

32:                                               ; preds = %26
  %33 = sub i64 %28, %30
  %34 = icmp slt i64 %33, 0
  %35 = load ptr, ptr %8, align 8
  %36 = getelementptr inbounds nuw i8, ptr %35, i64 56
  %37 = load ptr, ptr %36, align 8
  %38 = getelementptr inbounds nuw i64, ptr %37, i64 %indvars.iv
  %39 = load i64, ptr %38, align 8
  br i1 %34, label %.thread58, label %.thread

.thread58:                                        ; preds = %32
  %40 = sub i64 %39, %33
  store i64 %40, ptr %38, align 8
  %41 = load ptr, ptr %23, align 8
  %42 = getelementptr inbounds nuw i64, ptr %41, i64 %indvars.iv
  %43 = load i64, ptr %42, align 8
  %44 = sub i64 %43, %33
  store i64 %44, ptr %42, align 8
  %.pre = load ptr, ptr %24, align 8
  %.phi.trans.insert = getelementptr inbounds nuw i64, ptr %.pre, i64 %indvars.iv
  %.pre61 = load i64, ptr %.phi.trans.insert, align 8
  br label %52

.thread:                                          ; preds = %32
  %spec.select = tail call i64 @llvm.usub.sat.i64(i64 %39, i64 %33)
  store i64 %spec.select, ptr %38, align 8
  %45 = load ptr, ptr %23, align 8
  %46 = getelementptr inbounds nuw i64, ptr %45, i64 %indvars.iv
  %47 = load i64, ptr %46, align 8
  %storemerge62 = tail call i64 @llvm.usub.sat.i64(i64 %47, i64 %33)
  store i64 %storemerge62, ptr %46, align 8
  %48 = load ptr, ptr %24, align 8
  %49 = getelementptr inbounds nuw i64, ptr %48, i64 %indvars.iv
  %50 = load i64, ptr %49, align 8
  %51 = icmp ult i64 %33, %50
  br i1 %51, label %52, label %57

52:                                               ; preds = %.thread58, %.thread
  %53 = phi i64 [ %.pre61, %.thread58 ], [ %50, %.thread ]
  %54 = phi ptr [ %.pre, %.thread58 ], [ %48, %.thread ]
  %55 = getelementptr inbounds nuw i64, ptr %54, i64 %indvars.iv
  %56 = sub i64 %53, %33
  store i64 %56, ptr %55, align 8
  br label %58

57:                                               ; preds = %.thread
  store i64 0, ptr %49, align 8
  br label %58

58:                                               ; preds = %57, %52
  %59 = tail call i32 @get_log_level() #15
  %60 = icmp sgt i32 %59, 5
  br i1 %60, label %61, label %70

61:                                               ; preds = %58
  %62 = load ptr, ptr %25, align 8
  %63 = load ptr, ptr %8, align 8
  %64 = getelementptr inbounds nuw i8, ptr %63, i64 56
  %65 = load ptr, ptr %64, align 8
  %66 = getelementptr inbounds nuw i64, ptr %65, i64 %indvars.iv
  %67 = load i64, ptr %66, align 8
  %68 = load i64, ptr %27, align 8
  %69 = load i64, ptr %29, align 8
  tail call void (i32, ptr, ...) @log_var(i32 noundef 6, ptr noundef nonnull @.str.50, ptr noundef nonnull %0, ptr noundef %62, i64 noundef %67, i64 noundef %68, i64 noundef %69) #15
  br label %70

70:                                               ; preds = %58, %61, %26
  %indvars.iv.next = add nuw nsw i64 %indvars.iv, 1
  %71 = load i32, ptr @slurmctld_tres_cnt, align 4
  %72 = sext i32 %71 to i64
  %73 = icmp slt i64 %indvars.iv.next, %72
  br i1 %73, label %26, label %.loopexit, !llvm.loop !20

.loopexit:                                        ; preds = %70, %7, %4
  ret void
}